target datalayout = "e-m:e-p270:32:32-p271:32:32-p272:64:64-i64:64-i128:128-f80:128-n8:16:32:64-S128"
target triple = "x86_64-pc-linux-gnu"

%"class.std::__shared_count" = type { ptr }
%"class.nix::ref.51" = type { %"class.std::shared_ptr.52" }
%"class.std::shared_ptr.52" = type { %"class.std::__shared_ptr.53" }
%"class.std::__shared_ptr.53" = type { ptr, %"class.std::__shared_count" }
%"class.nix::ref.55" = type { %"class.std::shared_ptr.56" }
%"class.std::shared_ptr.56" = type { %"class.std::__shared_ptr.57" }
%"class.std::__shared_ptr.57" = type { ptr, %"class.std::__shared_count" }

; Function Attrs: mustprogress uwtable
define void @_ZN3nix22AllowListInputAccessor6createENS_3refINS_13InputAccessorEEEOSt3setINS_9CanonPathESt4lessIS5_ESaIS5_EEOSt8functionIFNS_19RestrictedPathErrorERKS5_EE(ptr dead_on_unwind noalias writable sret(%"class.nix::ref.51") align 8 %0, ptr noundef %1, ptr noundef nonnull align 8 dereferenceable(48) %2, ptr noundef nonnull align 8 dereferenceable(32) %3) #5 align 2 personality ptr @__gxx_personality_v0 {
  %5 = alloca ptr, align 8
  %6 = alloca ptr, align 8
  %7 = alloca ptr, align 8
  %8 = alloca ptr, align 8
  %9 = alloca %"class.nix::ref.55", align 8
  %10 = alloca ptr, align 8
  %11 = alloca i32, align 4
  store ptr %0, ptr %5, align 8
  store ptr %1, ptr %6, align 8
  store ptr %2, ptr %7, align 8
  store ptr %3, ptr %8, align 8
  %12 = load ptr, ptr %7, align 8
  %13 = load ptr, ptr %8, align 8
  call void @_ZN3nix8make_refINS_26AllowListInputAccessorImplEJRNS_3refINS_13InputAccessorEEESt3setINS_9CanonPathESt4lessIS7_ESaIS7_EESt8functionIFNS_19RestrictedPathErrorERKS7_EEEEENS2_IT_EEDpOT0_(ptr dead_on_unwind writable sret(%"class.nix::ref.55") align 8 %9, ptr noundef nonnull align 8 dereferenceable(16) %1, ptr noundef nonnull align 8 dereferenceable(48) %12, ptr noundef nonnull align 8 dereferenceable(32) %13)
  invoke void @_ZNK3nix3refINS_26AllowListInputAccessorImplEEcvNS0_IT_EEINS_22AllowListInputAccessorEEEv(ptr dead_on_unwind writable sret(%"class.nix::ref.51") align 8 %0, ptr noundef nonnull align 8 dereferenceable(16) %9)
          to label %14 unwind label %15

14:                                               ; preds = %4
  call void @_ZN3nix3refINS_26AllowListInputAccessorImplEED2Ev(ptr noundef nonnull align 8 dereferenceable(16) %9) #3
  ret void

15:                                               ; preds = %4
  %16 = landingpad { ptr, i32 }
          cleanup
  %17 = extractvalue { ptr, i32 } %16, 0
  store ptr %17, ptr %10, align 8
  %18 = extractvalue { ptr, i32 } %16, 1
  store i32 %18, ptr %11, align 4
  call void @_ZN3nix3refINS_26AllowListInputAccessorImplEED2Ev(ptr noundef nonnull align 8 dereferenceable(16) %9) #3
  br label %19

19:                                               ; preds = %15
  %20 = load ptr, ptr %10, align 8
  %21 = load i32, ptr %11, align 4
  %22 = insertvalue { ptr, i32 } poison, ptr %20, 0
  %23 = insertvalue { ptr, i32 } %22, i32 %21, 1
  resume { ptr, i32 } %23
}